target datalayout = "e-m:e-p270:32:32-p271:32:32-p272:64:64-i64:64-i128:128-f80:128-n8:16:32:64-S128"
target triple = "x86_64-pc-linux-gnu"

%struct.QMetaObject = type { %"struct.QMetaObject::Data" }
%"struct.QMetaObject::Data" = type { %"struct.QMetaObject::SuperData", ptr, ptr, ptr, ptr, ptr, ptr }
%"struct.QMetaObject::SuperData" = type { ptr }
%class.QObject = type { ptr, %class.QScopedPointer }
%class.QScopedPointer = type { ptr }
%class.QObjectData = type { ptr, ptr, ptr, %class.QList.38, i32, i32, ptr, %class.QBindingStorage }
%class.QList.38 = type { %struct.QArrayDataPointer.41 }
%struct.QArrayDataPointer.41 = type { ptr, ptr, i64 }
%class.QBindingStorage = type { ptr, ptr }
%class.QVariant = type { %"struct.QVariant::Private" }
%"struct.QVariant::Private" = type { %union.anon.24, i64 }
%union.anon.24 = type { ptr, [16 x i8] }

@.str.3 = private unnamed_addr constant [7 x i8] c"column\00", align 1
@_ZN7QAction16staticMetaObjectE = external global %struct.QMetaObject, align 8
@_ZN5QMenu16staticMetaObjectE = external global %struct.QMetaObject, align 8
@_ZN10PacketList16staticMetaObjectE = external global %struct.QMetaObject, align 8

; Function Attrs: mustprogress nounwind uwtable
define linkonce_odr noundef ptr @_ZNK14QScopedPointerI11QObjectData21QScopedPointerDeleterIS0_EEptEv(ptr noundef nonnull align 8 dereferenceable(8) %0) #2 comdat align 2 {
  %2 = alloca ptr, align 8
  store ptr %0, ptr %2, align 8
  %3 = load ptr, ptr %2, align 8
  %4 = getelementptr inbounds %class.QScopedPointer, ptr %3, i32 0, i32 0
  %5 = load ptr, ptr %4, align 8
  ret ptr %5
}

; Function Attrs: mustprogress uwtable
define linkonce_odr noundef ptr @_ZNK11QMetaObject4castEP7QObject(ptr noundef nonnull align 8 dereferenceable(56) %0, ptr noundef %1) #0 comdat align 2 {
  %3 = alloca ptr, align 8
  %4 = alloca ptr, align 8
  store ptr %0, ptr %3, align 8
  store ptr %1, ptr %4, align 8
  %5 = load ptr, ptr %3, align 8
  %6 = load ptr, ptr %4, align 8
  %7 = call noundef ptr @_ZNK11QMetaObject4castEPK7QObject(ptr noundef nonnull align 8 dereferenceable(56) %5, ptr noundef %6)
  ret ptr %7
}

; Function Attrs: mustprogress uwtable
define linkonce_odr noundef ptr @_Z12qobject_castIP10PacketListET_P7QObject(ptr noundef %0) #0 comdat {
  %2 = alloca ptr, align 8
  store ptr %0, ptr %2, align 8
  %3 = load ptr, ptr %2, align 8
  %4 = call noundef ptr @_ZNK11QMetaObject4castEP7QObject(ptr noundef nonnull align 8 dereferenceable(56) @_ZN10PacketList16staticMetaObjectE, ptr noundef %3)
  ret ptr %4
}

; Function Attrs: mustprogress uwtable
define linkonce_odr noundef ptr @_Z12qobject_castIP5QMenuET_P7QObject(ptr noundef %0) #0 comdat {
  %2 = alloca ptr, align 8
  store ptr %0, ptr %2, align 8
  %3 = load ptr, ptr %2, align 8
  %4 = call noundef ptr @_ZNK11QMetaObject4castEP7QObject(ptr noundef nonnull align 8 dereferenceable(56) @_ZN5QMenu16staticMetaObjectE, ptr noundef %3)
  ret ptr %4
}

; Function Attrs: mustprogress nounwind uwtable
define linkonce_odr noundef ptr @_ZNK7QObject6parentEv(ptr noundef nonnull align 8 dereferenceable(16) %0) #2 comdat align 2 {
  %2 = alloca ptr, align 8
  store ptr %0, ptr %2, align 8
  %3 = load ptr, ptr %2, align 8
  %4 = getelementptr inbounds %class.QObject, ptr %3, i32 0, i32 1
  %5 = call noundef ptr @_ZNK14QScopedPointerI11QObjectData21QScopedPointerDeleterIS0_EEptEv(ptr noundef nonnull align 8 dereferenceable(8) %4) #9
  %6 = getelementptr inbounds %class.QObjectData, ptr %5, i32 0, i32 2
  %7 = load ptr, ptr %6, align 8
  ret ptr %7
}

; Function Attrs: mustprogress uwtable
define linkonce_odr noundef ptr @_Z12qobject_castIP7QActionET_P7QObject(ptr noundef %0) #0 comdat {
  %2 = alloca ptr, align 8
  store ptr %0, ptr %2, align 8
  %3 = load ptr, ptr %2, align 8
  %4 = call noundef ptr @_ZNK11QMetaObject4castEP7QObject(ptr noundef nonnull align 8 dereferenceable(56) @_ZN7QAction16staticMetaObjectE, ptr noundef %3)
  ret ptr %4
}

; Function Attrs: mustprogress uwtable
define void @_ZN16PacketListHeader15resizeToContentEv(ptr noundef nonnull align 8 dereferenceable(44) %0) #0 align 2 personality ptr @__gxx_personality_v0 {
  %2 = alloca ptr, align 8
  %3 = alloca ptr, align 8
  %4 = alloca ptr, align 8
  %5 = alloca i32, align 4
  %6 = alloca %class.QVariant, align 8
  %7 = alloca ptr, align 8
  %8 = alloca i32, align 4
  %9 = alloca ptr, align 8
  store ptr %0, ptr %2, align 8
  %10 = load ptr, ptr %2, align 8
  %11 = call noundef ptr @_ZNK7QObject6senderEv(ptr noundef nonnull align 8 dereferenceable(16) %10)
  %12 = call noundef ptr @_Z12qobject_castIP7QActionET_P7QObject(ptr noundef %11)
  store ptr %12, ptr %3, align 8
  %13 = load ptr, ptr %3, align 8
  %14 = icmp ne ptr %13, null
  br i1 %14, label %16, label %15

15:                                               ; preds = %1
  br label %38

16:                                               ; preds = %1
  %17 = load ptr, ptr %3, align 8
  %18 = call noundef ptr @_ZNK7QObject6parentEv(ptr noundef nonnull align 8 dereferenceable(16) %17)
  %19 = call noundef ptr @_Z12qobject_castIP5QMenuET_P7QObject(ptr noundef %18)
  store ptr %19, ptr %4, align 8
  %20 = load ptr, ptr %4, align 8
  %21 = icmp ne ptr %20, null
  br i1 %21, label %23, label %22

22:                                               ; preds = %16
  br label %38

23:                                               ; preds = %16
  %24 = load ptr, ptr %4, align 8
  call void @_ZNK7QObject8propertyEPKc(ptr dead_on_unwind writable sret(%class.QVariant) align 8 %6, ptr noundef nonnull align 8 dereferenceable(16) %24, ptr noundef @.str.3)
  %25 = invoke noundef i32 @_ZNK8QVariant5toIntEPb(ptr noundef nonnull align 8 dereferenceable(32) %6, ptr noundef null)
          to label %26 unwind label %34

26:                                               ; preds = %23
  call void @_ZN8QVariantD1Ev(ptr noundef nonnull align 8 dereferenceable(32) %6) #9
  store i32 %25, ptr %5, align 4
  %27 = call noundef ptr @_ZNK7QObject6parentEv(ptr noundef nonnull align 8 dereferenceable(16) %10)
  %28 = call noundef ptr @_Z12qobject_castIP10PacketListET_P7QObject(ptr noundef %27)
  store ptr %28, ptr %9, align 8
  %29 = load ptr, ptr %9, align 8
  %30 = icmp ne ptr %29, null
  br i1 %30, label %31, label %38

31:                                               ; preds = %26
  %32 = load ptr, ptr %9, align 8
  %33 = load i32, ptr %5, align 4
  call void @_ZN9QTreeView22resizeColumnToContentsEi(ptr noundef nonnull align 8 dereferenceable(40) %32, i32 noundef %33)
  br label %38

34:                                               ; preds = %23
  %35 = landingpad { ptr, i32 }
          cleanup
  %36 = extractvalue { ptr, i32 } %35, 0
  store ptr %36, ptr %7, align 8
  %37 = extractvalue { ptr, i32 } %35, 1
  store i32 %37, ptr %8, align 4
  call void @_ZN8QVariantD1Ev(ptr noundef nonnull align 8 dereferenceable(32) %6) #9
  br label %39

38:                                               ; preds = %31, %26, %22, %15
  ret void

39:                                               ; preds = %34
  %40 = load ptr, ptr %7, align 8
  %41 = load i32, ptr %8, align 4
  %42 = insertvalue { ptr, i32 } poison, ptr %40, 0
  %43 = insertvalue { ptr, i32 } %42, i32 %41, 1
  resume { ptr, i32 } %43
}